; Function Attrs: mustprogress uwtable
define hidden void @_ZN4cvc58internal6theory22TheoryInferenceManager13mkConflictExpERKSt6vectorINS0_12NodeTemplateILb1EEESaIS5_EEPNS0_14ProofGeneratorE(ptr noalias sret(%"class.cvc5::internal::TrustNode") align 8 %agg.result, ptr nocapture noundef nonnull readonly align 8 dereferenceable(256) %this, ptr noundef nonnull align 8 dereferenceable(24) %exp, ptr noundef %pg) local_unnamed_addr #3 align 2 personality ptr @__gxx_personality_v0 {
entry:
  %conf = alloca %"class.cvc5::internal::NodeTemplate", align 8
  %ref.tmp = alloca %"class.std::vector.495", align 8
  %agg.tmp = alloca %"class.cvc5::internal::NodeTemplate", align 8
  %d_pfee = getelementptr inbounds i8, ptr %this, i64 56
  %0 = load ptr, ptr %d_pfee, align 8
  %cmp.not = icmp eq ptr %0, null
  br i1 %cmp.not, label %if.end, label %if.then

if.then:                                          ; preds = %entry
  tail call void @_ZN4cvc58internal6theory2eq13ProofEqEngine14assertConflictERKSt6vectorINS0_12NodeTemplateILb1EEESaIS6_EEPNS0_14ProofGeneratorE(ptr sret(%"class.cvc5::internal::TrustNode") align 8 %agg.result, ptr noundef nonnull align 8 dereferenceable(976) %0, ptr noundef nonnull align 8 dereferenceable(24) %exp, ptr noundef %pg)
  br label %return

if.end:                                           ; preds = %entry
  call void @llvm.memset.p0.i64(ptr noundef nonnull align 8 dereferenceable(24) %ref.tmp, i8 0, i64 24, i1 false)
  invoke void @_ZN4cvc58internal6theory22TheoryInferenceManager16mkExplainPartialERKSt6vectorINS0_12NodeTemplateILb1EEESaIS5_EES9_(ptr nonnull sret(%"class.cvc5::internal::NodeTemplate") align 8 %conf, ptr noundef nonnull align 8 dereferenceable(256) %this, ptr noundef nonnull align 8 dereferenceable(24) %exp, ptr noundef nonnull align 8 dereferenceable(24) %ref.tmp)
          to label %_ZNSt6vectorIN4cvc58internal12NodeTemplateILb1EEESaIS3_EED2Ev.exit unwind label %lpad

_ZNSt6vectorIN4cvc58internal12NodeTemplateILb1EEESaIS3_EED2Ev.exit: ; preds = %if.end
  %.pre = load ptr, ptr %conf, align 8
  %bf.load.i.i.pre = load i64, ptr %.pre, align 8
  store ptr %.pre, ptr %agg.tmp, align 8
  %bf.lshr.i.i = lshr i64 %bf.load.i.i.pre, 40
  %1 = trunc i64 %bf.lshr.i.i to i32
  %bf.cast.i.i = and i32 %1, 1048575
  %cmp.i.i = icmp ult i32 %bf.cast.i.i, 1048574
  br i1 %cmp.i.i, label %if.then.i.i, label %if.else.i.i

if.then.i.i:                                      ; preds = %_ZNSt6vectorIN4cvc58internal12NodeTemplateILb1EEESaIS3_EED2Ev.exit
  %bf.value.i.i = add i64 %bf.load.i.i.pre, 1099511627776
  %bf.shl.i.i = and i64 %bf.value.i.i, 1152920405095219200
  %bf.clear7.i.i = and i64 %bf.load.i.i.pre, -1152920405095219201
  %bf.set.i.i = or disjoint i64 %bf.shl.i.i, %bf.clear7.i.i
  store i64 %bf.set.i.i, ptr %.pre, align 8
  br label %invoke.cont4

if.else.i.i:                                      ; preds = %_ZNSt6vectorIN4cvc58internal12NodeTemplateILb1EEESaIS3_EED2Ev.exit
  %cmp12.i.i = icmp eq i32 %bf.cast.i.i, 1048574
  br i1 %cmp12.i.i, label %if.then13.i.i, label %invoke.cont4

if.then13.i.i:                                    ; preds = %if.else.i.i
  %bf.set23.i.i = or i64 %bf.load.i.i.pre, 1152920405095219200
  store i64 %bf.set23.i.i, ptr %.pre, align 8
  invoke void @_ZN4cvc58internal4expr9NodeValue20markRefCountMaxedOutEv(ptr noundef nonnull align 8 dereferenceable(16) %.pre)
          to label %invoke.cont4 unwind label %lpad3

invoke.cont4:                                     ; preds = %if.else.i.i, %if.then.i.i, %if.then13.i.i
  invoke void @_ZN4cvc58internal9TrustNode15mkTrustConflictENS0_12NodeTemplateILb1EEEPNS0_14ProofGeneratorE(ptr sret(%"class.cvc5::internal::TrustNode") align 8 %agg.result, ptr noundef nonnull %agg.tmp, ptr noundef null)
          to label %invoke.cont6 unwind label %lpad5

invoke.cont6:                                     ; preds = %invoke.cont4
  %2 = load ptr, ptr %agg.tmp, align 8
  %bf.load.i.i4 = load i64, ptr %2, align 8
  %3 = and i64 %bf.load.i.i4, 1152920405095219200
  %cmp.not.i.i = icmp eq i64 %3, 1152920405095219200
  br i1 %cmp.not.i.i, label %_ZN4cvc58internal12NodeTemplateILb1EED2Ev.exit, label %if.then.i.i5

if.then.i.i5:                                     ; preds = %invoke.cont6
  %bf.value.i.i6 = add i64 %bf.load.i.i4, 1152920405095219200
  %bf.shl.i.i7 = and i64 %bf.value.i.i6, 1152920405095219200
  %bf.clear7.i.i8 = and i64 %bf.load.i.i4, -1152920405095219201
  %bf.set.i.i9 = or disjoint i64 %bf.shl.i.i7, %bf.clear7.i.i8
  store i64 %bf.set.i.i9, ptr %2, align 8
  %cmp12.i.i10 = icmp eq i64 %bf.shl.i.i7, 0
  br i1 %cmp12.i.i10, label %if.then13.i.i12, label %_ZN4cvc58internal12NodeTemplateILb1EED2Ev.exit

if.then13.i.i12:                                  ; preds = %if.then.i.i5
  invoke void @_ZN4cvc58internal4expr9NodeValue15markForDeletionEv(ptr noundef nonnull align 8 dereferenceable(16) %2)
          to label %_ZN4cvc58internal12NodeTemplateILb1EED2Ev.exit unwind label %terminate.lpad.i

terminate.lpad.i:                                 ; preds = %if.then13.i.i12
  %4 = landingpad { ptr, i32 }
          catch ptr null
  %5 = extractvalue { ptr, i32 } %4, 0
  call void @__clang_call_terminate(ptr %5) #26
  unreachable

_ZN4cvc58internal12NodeTemplateILb1EED2Ev.exit:   ; preds = %invoke.cont6, %if.then.i.i5, %if.then13.i.i12
  %6 = load ptr, ptr %conf, align 8
  %bf.load.i.i13 = load i64, ptr %6, align 8
  %7 = and i64 %bf.load.i.i13, 1152920405095219200
  %cmp.not.i.i14 = icmp eq i64 %7, 1152920405095219200
  br i1 %cmp.not.i.i14, label %return, label %if.then.i.i15

if.then.i.i15:                                    ; preds = %_ZN4cvc58internal12NodeTemplateILb1EED2Ev.exit
  %bf.value.i.i16 = add i64 %bf.load.i.i13, 1152920405095219200
  %bf.shl.i.i17 = and i64 %bf.value.i.i16, 1152920405095219200
  %bf.clear7.i.i18 = and i64 %bf.load.i.i13, -1152920405095219201
  %bf.set.i.i19 = or disjoint i64 %bf.shl.i.i17, %bf.clear7.i.i18
  store i64 %bf.set.i.i19, ptr %6, align 8
  %cmp12.i.i20 = icmp eq i64 %bf.shl.i.i17, 0
  br i1 %cmp12.i.i20, label %if.then13.i.i22, label %return

if.then13.i.i22:                                  ; preds = %if.then.i.i15
  invoke void @_ZN4cvc58internal4expr9NodeValue15markForDeletionEv(ptr noundef nonnull align 8 dereferenceable(16) %6)
          to label %return unwind label %terminate.lpad.i23

terminate.lpad.i23:                               ; preds = %if.then13.i.i22
  %8 = landingpad { ptr, i32 }
          catch ptr null
  %9 = extractvalue { ptr, i32 } %8, 0
  call void @__clang_call_terminate(ptr %9) #26
  unreachable

lpad:                                             ; preds = %if.end
  %10 = landingpad { ptr, i32 }
          cleanup
  call void @_ZNSt6vectorIN4cvc58internal12NodeTemplateILb1EEESaIS3_EED2Ev(ptr noundef nonnull align 8 dereferenceable(24) %ref.tmp) #25
  br label %eh.resume

lpad3:                                            ; preds = %if.then13.i.i
  %11 = landingpad { ptr, i32 }
          cleanup
  br label %ehcleanup

lpad5:                                            ; preds = %invoke.cont4
  %12 = landingpad { ptr, i32 }
          cleanup
  call void @_ZN4cvc58internal12NodeTemplateILb1EED2Ev(ptr noundef nonnull align 8 dereferenceable(8) %agg.tmp) #25
  br label %ehcleanup

ehcleanup:                                        ; preds = %lpad5, %lpad3
  %.pn = phi { ptr, i32 } [ %12, %lpad5 ], [ %11, %lpad3 ]
  call void @_ZN4cvc58internal12NodeTemplateILb1EED2Ev(ptr noundef nonnull align 8 dereferenceable(8) %conf) #25
  br label %eh.resume

return:                                           ; preds = %if.then13.i.i22, %if.then.i.i15, %_ZN4cvc58internal12NodeTemplateILb1EED2Ev.exit, %if.then
  ret void

eh.resume:                                        ; preds = %ehcleanup, %lpad
  %.pn.pn = phi { ptr, i32 } [ %.pn, %ehcleanup ], [ %10, %lpad ]
  resume { ptr, i32 } %.pn.pn
}